target datalayout = "e-m:e-p270:32:32-p271:32:32-p272:64:64-i64:64-i128:128-f80:128-n8:16:32:64-S128"
target triple = "x86_64-pc-linux-gnu"

%struct.CRYPTO_REF_COUNT = type { i32 }
%struct.bio_st = type { ptr, ptr, ptr, ptr, ptr, i32, i32, i32, i32, i32, ptr, ptr, ptr, %struct.CRYPTO_REF_COUNT, i64, i64, %struct.crypto_ex_data_st }
%struct.crypto_ex_data_st = type { ptr, ptr }
%struct.bio_method_st = type { i32, ptr, ptr, ptr, ptr, ptr, ptr, ptr, ptr, ptr, ptr, ptr, ptr, ptr }

@.str = private unnamed_addr constant [32 x i8] c"../openssl/crypto/bio/bio_lib.c\00", align 1
@__func__.BIO_find_type = private unnamed_addr constant [14 x i8] c"BIO_find_type\00", align 1

; Function Attrs: nounwind uwtable
define ptr @BIO_find_type(ptr noundef %0, i32 noundef %1) #0 {
  %3 = alloca ptr, align 8
  %4 = alloca ptr, align 8
  %5 = alloca i32, align 4
  %6 = alloca i32, align 4
  %7 = alloca i32, align 4
  %8 = alloca i32, align 4
  store ptr %0, ptr %4, align 8, !tbaa !10
  store i32 %1, ptr %5, align 4, !tbaa !26
  call void @llvm.lifetime.start.p0(i64 4, ptr %6) #5
  call void @llvm.lifetime.start.p0(i64 4, ptr %7) #5
  %9 = load ptr, ptr %4, align 8, !tbaa !10
  %10 = icmp eq ptr %9, null
  br i1 %10, label %11, label %12

11:                                               ; preds = %2
  call void @ERR_new()
  call void @ERR_set_debug(ptr noundef @.str, i32 noundef 817, ptr noundef @__func__.BIO_find_type)
  call void (i32, i32, ptr, ...) @ERR_set_error(i32 noundef 32, i32 noundef 786690, ptr noundef null)
  store ptr null, ptr %3, align 8
  store i32 1, ptr %8, align 4
  br label %52

12:                                               ; preds = %2
  %13 = load i32, ptr %5, align 4, !tbaa !26
  %14 = and i32 %13, 255
  store i32 %14, ptr %7, align 4, !tbaa !26
  br label %15

15:                                               ; preds = %48, %12
  %16 = load ptr, ptr %4, align 8, !tbaa !10
  %17 = getelementptr inbounds nuw %struct.bio_st, ptr %16, i32 0, i32 1
  %18 = load ptr, ptr %17, align 8, !tbaa !20
  %19 = icmp ne ptr %18, null
  br i1 %19, label %20, label %44

20:                                               ; preds = %15
  %21 = load ptr, ptr %4, align 8, !tbaa !10
  %22 = getelementptr inbounds nuw %struct.bio_st, ptr %21, i32 0, i32 1
  %23 = load ptr, ptr %22, align 8, !tbaa !20
  %24 = getelementptr inbounds nuw %struct.bio_method_st, ptr %23, i32 0, i32 0
  %25 = load i32, ptr %24, align 8, !tbaa !41
  store i32 %25, ptr %6, align 4, !tbaa !26
  %26 = load i32, ptr %7, align 4, !tbaa !26
  %27 = icmp ne i32 %26, 0
  br i1 %27, label %36, label %28

28:                                               ; preds = %20
  %29 = load i32, ptr %6, align 4, !tbaa !26
  %30 = load i32, ptr %5, align 4, !tbaa !26
  %31 = and i32 %29, %30
  %32 = icmp ne i32 %31, 0
  br i1 %32, label %33, label %35

33:                                               ; preds = %28
  %34 = load ptr, ptr %4, align 8, !tbaa !10
  store ptr %34, ptr %3, align 8
  store i32 1, ptr %8, align 4
  br label %52

35:                                               ; preds = %28
  br label %43

36:                                               ; preds = %20
  %37 = load i32, ptr %6, align 4, !tbaa !26
  %38 = load i32, ptr %5, align 4, !tbaa !26
  %39 = icmp eq i32 %37, %38
  br i1 %39, label %40, label %42

40:                                               ; preds = %36
  %41 = load ptr, ptr %4, align 8, !tbaa !10
  store ptr %41, ptr %3, align 8
  store i32 1, ptr %8, align 4
  br label %52

42:                                               ; preds = %36
  br label %43

43:                                               ; preds = %42, %35
  br label %44

44:                                               ; preds = %43, %15
  %45 = load ptr, ptr %4, align 8, !tbaa !10
  %46 = getelementptr inbounds nuw %struct.bio_st, ptr %45, i32 0, i32 11
  %47 = load ptr, ptr %46, align 8, !tbaa !66
  store ptr %47, ptr %4, align 8, !tbaa !10
  br label %48

48:                                               ; preds = %44
  %49 = load ptr, ptr %4, align 8, !tbaa !10
  %50 = icmp ne ptr %49, null
  br i1 %50, label %15, label %51, !llvm.loop !70

51:                                               ; preds = %48
  store ptr null, ptr %3, align 8
  store i32 1, ptr %8, align 4
  br label %52

52:                                               ; preds = %51, %40, %33, %11
  call void @llvm.lifetime.end.p0(i64 4, ptr %7) #5
  call void @llvm.lifetime.end.p0(i64 4, ptr %6) #5
  %53 = load ptr, ptr %3, align 8
  ret ptr %53
}