; Function Attrs: nounwind uwtable
define ptr @BIO_find_type(ptr noundef readonly captures(address_is_null, ret: address, provenance) %0, i32 noundef %1) local_unnamed_addr #0 {
  %3 = icmp eq ptr %0, null
  br i1 %3, label %4, label %5

4:                                                ; preds = %2
  tail call void @ERR_new() #14
  tail call void @ERR_set_debug(ptr noundef nonnull @.str, i32 noundef 817, ptr noundef nonnull @__func__.BIO_find_type) #14
  tail call void (i32, i32, ptr, ...) @ERR_set_error(i32 noundef 32, i32 noundef 786690, ptr noundef null) #14
  br label %.loopexit

5:                                                ; preds = %2
  %6 = and i32 %1, 255
  %.not17 = icmp eq i32 %6, 0
  br i1 %.not17, label %.split.us, label %.split

.split.us:                                        ; preds = %5, %12
  %.013.us = phi ptr [ %14, %12 ], [ %0, %5 ]
  %7 = getelementptr inbounds nuw i8, ptr %.013.us, i64 8
  %8 = load ptr, ptr %7, align 8, !tbaa !17
  %.not.us = icmp eq ptr %8, null
  br i1 %.not.us, label %12, label %9

9:                                                ; preds = %.split.us
  %10 = load i32, ptr %8, align 8, !tbaa !30
  %11 = and i32 %10, %1
  %.not18.us = icmp eq i32 %11, 0
  br i1 %.not18.us, label %12, label %.loopexit

12:                                               ; preds = %9, %.split.us
  %13 = getelementptr inbounds nuw i8, ptr %.013.us, i64 72
  %14 = load ptr, ptr %13, align 8, !tbaa !56
  %.not19.us = icmp eq ptr %14, null
  br i1 %.not19.us, label %.loopexit, label %.split.us, !llvm.loop !60

.split:                                           ; preds = %5, %20
  %.013 = phi ptr [ %22, %20 ], [ %0, %5 ]
  %15 = getelementptr inbounds nuw i8, ptr %.013, i64 8
  %16 = load ptr, ptr %15, align 8, !tbaa !17
  %.not = icmp eq ptr %16, null
  br i1 %.not, label %20, label %17

17:                                               ; preds = %.split
  %18 = load i32, ptr %16, align 8, !tbaa !30
  %19 = icmp eq i32 %18, %1
  br i1 %19, label %.loopexit, label %20

20:                                               ; preds = %17, %.split
  %21 = getelementptr inbounds nuw i8, ptr %.013, i64 72
  %22 = load ptr, ptr %21, align 8, !tbaa !56
  %.not19 = icmp eq ptr %22, null
  br i1 %.not19, label %.loopexit, label %.split, !llvm.loop !60

.loopexit:                                        ; preds = %17, %20, %12, %9, %4
  %.0 = phi ptr [ null, %4 ], [ null, %12 ], [ %.013.us, %9 ], [ null, %20 ], [ %.013, %17 ]
  ret ptr %.0
}